; Function Attrs: nounwind sspstrong uwtable
define dso_local void @qemu_chr_be_update_read_handlers(ptr noundef %s, ptr noundef %context) local_unnamed_addr #0 {
entry:
  %call.i = tail call ptr @object_get_class(ptr noundef %s) #13
  %call1.i = tail call ptr @object_class_dynamic_cast_assert(ptr noundef %call.i, ptr noundef nonnull @.str.4, ptr noundef nonnull @.str.104, i32 noundef 231, ptr noundef nonnull @__func__.CHARDEV_GET_CLASS) #13
  %features.i = getelementptr inbounds nuw i8, ptr %s, i64 144
  %0 = load i64, ptr %features.i, align 8
  %1 = and i64 %0, 8
  %tobool.i = icmp ne i64 %1, 0
  %tobool = icmp eq ptr %context, null
  %or.cond.not = or i1 %tobool, %tobool.i
  br i1 %or.cond.not, label %if.end, label %if.else

if.else:                                          ; preds = %entry
  tail call void @__assert_fail(ptr noundef nonnull @.str.3, ptr noundef nonnull @.str.2, i32 noundef 224, ptr noundef nonnull @__PRETTY_FUNCTION__.qemu_chr_be_update_read_handlers) #14
  unreachable

if.end:                                           ; preds = %entry
  %gcontext = getelementptr inbounds nuw i8, ptr %s, i64 136
  store ptr %context, ptr %gcontext, align 8
  %chr_update_read_handler = getelementptr inbounds nuw i8, ptr %call1.i, i64 144
  %2 = load ptr, ptr %chr_update_read_handler, align 8
  %tobool2.not = icmp eq ptr %2, null
  br i1 %tobool2.not, label %if.end5, label %if.then3

if.then3:                                         ; preds = %if.end
  tail call void %2(ptr noundef nonnull %s) #13
  br label %if.end5

if.end5:                                          ; preds = %if.then3, %if.end
  ret void
}